target datalayout = "e-m:e-p270:32:32-p271:32:32-p272:64:64-i64:64-i128:128-f80:128-n8:16:32:64-S128"
target triple = "x86_64-pc-linux-gnu"

@crc32_impl = internal global ptr @dispatch_crc32, align 8
@libdeflate_x86_cpu_features = external global i32, align 4

; Function Attrs: inlinehint nounwind uwtable
define internal i32 @get_x86_cpu_features() #2 {
  %1 = load volatile i32, ptr @libdeflate_x86_cpu_features, align 4, !tbaa !4
  %2 = icmp eq i32 %1, 0
  br i1 %2, label %3, label %4

3:                                                ; preds = %0
  call void @libdeflate_init_x86_cpu_features()
  br label %4

4:                                                ; preds = %3, %0
  %5 = load volatile i32, ptr @libdeflate_x86_cpu_features, align 4, !tbaa !4
  ret i32 %5
}

; Function Attrs: inlinehint nounwind uwtable
define internal ptr @arch_select_crc32_func() #2 {
  %1 = alloca ptr, align 8
  %2 = alloca i32, align 4
  %3 = alloca i32, align 4
  call void @llvm.lifetime.start.p0(i64 4, ptr %2) #28
  %4 = call i32 @get_x86_cpu_features()
  store i32 %4, ptr %2, align 4, !tbaa !4
  %5 = load i32, ptr %2, align 4, !tbaa !4
  %6 = and i32 %5, 32
  %7 = icmp ne i32 %6, 0
  br i1 %7, label %8, label %25

8:                                                ; preds = %0
  %9 = load i32, ptr %2, align 4, !tbaa !4
  %10 = and i32 %9, 256
  %11 = icmp ne i32 %10, 0
  br i1 %11, label %12, label %25

12:                                               ; preds = %8
  %13 = load i32, ptr %2, align 4, !tbaa !4
  %14 = and i32 %13, 2
  %15 = icmp ne i32 %14, 0
  br i1 %15, label %16, label %25

16:                                               ; preds = %12
  %17 = load i32, ptr %2, align 4, !tbaa !4
  %18 = and i32 %17, 64
  %19 = icmp ne i32 %18, 0
  br i1 %19, label %20, label %25

20:                                               ; preds = %16
  %21 = load i32, ptr %2, align 4, !tbaa !4
  %22 = and i32 %21, 128
  %23 = icmp ne i32 %22, 0
  br i1 %23, label %24, label %25

24:                                               ; preds = %20
  store ptr @crc32_x86_vpclmulqdq_avx512_vl512, ptr %1, align 8
  store i32 1, ptr %3, align 4
  br label %70

25:                                               ; preds = %20, %16, %12, %8, %0
  %26 = load i32, ptr %2, align 4, !tbaa !4
  %27 = and i32 %26, 256
  %28 = icmp ne i32 %27, 0
  br i1 %28, label %29, label %42

29:                                               ; preds = %25
  %30 = load i32, ptr %2, align 4, !tbaa !4
  %31 = and i32 %30, 2
  %32 = icmp ne i32 %31, 0
  br i1 %32, label %33, label %42

33:                                               ; preds = %29
  %34 = load i32, ptr %2, align 4, !tbaa !4
  %35 = and i32 %34, 64
  %36 = icmp ne i32 %35, 0
  br i1 %36, label %37, label %42

37:                                               ; preds = %33
  %38 = load i32, ptr %2, align 4, !tbaa !4
  %39 = and i32 %38, 128
  %40 = icmp ne i32 %39, 0
  br i1 %40, label %41, label %42

41:                                               ; preds = %37
  store ptr @crc32_x86_vpclmulqdq_avx512_vl256, ptr %1, align 8
  store i32 1, ptr %3, align 4
  br label %70

42:                                               ; preds = %37, %33, %29, %25
  %43 = load i32, ptr %2, align 4, !tbaa !4
  %44 = and i32 %43, 256
  %45 = icmp ne i32 %44, 0
  br i1 %45, label %46, label %55

46:                                               ; preds = %42
  %47 = load i32, ptr %2, align 4, !tbaa !4
  %48 = and i32 %47, 2
  %49 = icmp ne i32 %48, 0
  br i1 %49, label %50, label %55

50:                                               ; preds = %46
  %51 = load i32, ptr %2, align 4, !tbaa !4
  %52 = and i32 %51, 8
  %53 = icmp ne i32 %52, 0
  br i1 %53, label %54, label %55

54:                                               ; preds = %50
  store ptr @crc32_x86_vpclmulqdq_avx2, ptr %1, align 8
  store i32 1, ptr %3, align 4
  br label %70

55:                                               ; preds = %50, %46, %42
  %56 = load i32, ptr %2, align 4, !tbaa !4
  %57 = and i32 %56, 2
  %58 = icmp ne i32 %57, 0
  br i1 %58, label %59, label %64

59:                                               ; preds = %55
  %60 = load i32, ptr %2, align 4, !tbaa !4
  %61 = and i32 %60, 4
  %62 = icmp ne i32 %61, 0
  br i1 %62, label %63, label %64

63:                                               ; preds = %59
  store ptr @crc32_x86_pclmulqdq_avx, ptr %1, align 8
  store i32 1, ptr %3, align 4
  br label %70

64:                                               ; preds = %59, %55
  %65 = load i32, ptr %2, align 4, !tbaa !4
  %66 = and i32 %65, 2
  %67 = icmp ne i32 %66, 0
  br i1 %67, label %68, label %69

68:                                               ; preds = %64
  store ptr @crc32_x86_pclmulqdq, ptr %1, align 8
  store i32 1, ptr %3, align 4
  br label %70

69:                                               ; preds = %64
  store ptr null, ptr %1, align 8
  store i32 1, ptr %3, align 4
  br label %70

70:                                               ; preds = %69, %68, %63, %54, %41, %24
  call void @llvm.lifetime.end.p0(i64 4, ptr %2) #28
  %71 = load ptr, ptr %1, align 8
  ret ptr %71
}

; Function Attrs: nounwind uwtable
define internal i32 @dispatch_crc32(i32 noundef %0, ptr noundef %1, i64 noundef %2) #0 {
  %4 = alloca i32, align 4
  %5 = alloca ptr, align 8
  %6 = alloca i64, align 8
  %7 = alloca ptr, align 8
  store i32 %0, ptr %4, align 4, !tbaa !4
  store ptr %1, ptr %5, align 8, !tbaa !12
  store i64 %2, ptr %6, align 8, !tbaa !10
  call void @llvm.lifetime.start.p0(i64 8, ptr %7) #28
  %8 = call ptr @arch_select_crc32_func()
  store ptr %8, ptr %7, align 8, !tbaa !8
  %9 = load ptr, ptr %7, align 8, !tbaa !8
  %10 = icmp eq ptr %9, null
  br i1 %10, label %11, label %12

11:                                               ; preds = %3
  store ptr @crc32_slice8, ptr %7, align 8, !tbaa !8
  br label %12

12:                                               ; preds = %11, %3
  %13 = load ptr, ptr %7, align 8, !tbaa !8
  store volatile ptr %13, ptr @crc32_impl, align 8, !tbaa !8
  %14 = load ptr, ptr %7, align 8, !tbaa !8
  %15 = load i32, ptr %4, align 4, !tbaa !4
  %16 = load ptr, ptr %5, align 8, !tbaa !12
  %17 = load i64, ptr %6, align 8, !tbaa !10
  %18 = call i32 %14(i32 noundef %15, ptr noundef %16, i64 noundef %17)
  call void @llvm.lifetime.end.p0(i64 8, ptr %7) #28
  ret i32 %18
}