; Function Attrs: nounwind uwtable
define internal i32 @dispatch_crc32(i32 noundef %0, ptr noundef %1, i64 noundef %2) #0 {
  %4 = load volatile i32, ptr @libdeflate_x86_cpu_features, align 4, !tbaa !8
  %5 = icmp eq i32 %4, 0
  br i1 %5, label %6, label %get_x86_cpu_features.exit.i

6:                                                ; preds = %3
  tail call void @libdeflate_init_x86_cpu_features() #10
  br label %get_x86_cpu_features.exit.i

get_x86_cpu_features.exit.i:                      ; preds = %6, %3
  %7 = load volatile i32, ptr @libdeflate_x86_cpu_features, align 4, !tbaa !8
  %8 = and i32 %7, 2
  %.not16.i = icmp eq i32 %8, 0
  %9 = and i32 %7, 482
  %or.cond29.not.i = icmp eq i32 %9, 482
  br i1 %or.cond29.not.i, label %arch_select_crc32_func.exit, label %10

10:                                               ; preds = %get_x86_cpu_features.exit.i
  %11 = and i32 %7, 450
  %or.cond32.not.i = icmp eq i32 %11, 450
  br i1 %or.cond32.not.i, label %arch_select_crc32_func.exit, label %12

12:                                               ; preds = %10
  %13 = and i32 %7, 266
  %or.cond34.not.i = icmp eq i32 %13, 266
  br i1 %or.cond34.not.i, label %arch_select_crc32_func.exit, label %14

14:                                               ; preds = %12
  %15 = and i32 %7, 6
  %or.cond35.not.i = icmp eq i32 %15, 6
  %.crc32_x86_pclmulqdq.i = select i1 %.not16.i, ptr null, ptr @crc32_x86_pclmulqdq
  %spec.select.i = select i1 %or.cond35.not.i, ptr @crc32_x86_pclmulqdq_avx, ptr %.crc32_x86_pclmulqdq.i
  br label %arch_select_crc32_func.exit

arch_select_crc32_func.exit:                      ; preds = %get_x86_cpu_features.exit.i, %10, %12, %14
  %.0.i = phi ptr [ @crc32_x86_vpclmulqdq_avx512_vl512, %get_x86_cpu_features.exit.i ], [ @crc32_x86_vpclmulqdq_avx512_vl256, %10 ], [ @crc32_x86_vpclmulqdq_avx2, %12 ], [ %spec.select.i, %14 ]
  %16 = icmp eq ptr %.0.i, null
  %spec.store.select = select i1 %16, ptr @crc32_slice8, ptr %.0.i
  store volatile ptr %spec.store.select, ptr @crc32_impl, align 8, !tbaa !4
  %17 = tail call i32 %spec.store.select(i32 noundef %0, ptr noundef %1, i64 noundef %2) #10
  ret i32 %17
}